; ModuleID = 'bench/ffmpeg/original/sdxdec.ll'
source_filename = "bench/ffmpeg/original/sdxdec.ll"
target datalayout = "e-m:e-p270:32:32-p271:32:32-p272:64:64-i64:64-i128:128-f80:128-n8:16:32:64-S128"
target triple = "x86_64-pc-linux-gnu"

@.str = private unnamed_addr constant [4 x i8] c"sdx\00", align 1
@.str.1 = private unnamed_addr constant [21 x i8] c"Sample Dump eXchange\00", align 1
@ff_sdx_demuxer = local_unnamed_addr constant { { ptr, ptr, i32, [4 x i8], ptr, ptr, ptr, ptr }, i32, i32, i32, [4 x i8], ptr, ptr, ptr, ptr, ptr, ptr, ptr, ptr, ptr, ptr } { { ptr, ptr, i32, [4 x i8], ptr, ptr, ptr, ptr } { ptr @.str, ptr @.str.1, i32 256, [4 x i8] zeroinitializer, ptr @.str, ptr null, ptr null, ptr null }, i32 0, i32 0, i32 0, [4 x i8] zeroinitializer, ptr @sdx_probe, ptr @sdx_read_header, ptr @ff_pcm_read_packet, ptr null, ptr @ff_pcm_read_seek, ptr null, ptr null, ptr null, ptr null, ptr null }, align 8
@switch.table.sdx_read_header = private unnamed_addr constant [4 x i32] [i32 65541, i32 65538, i32 65550, i32 65546], align 4

; Function Attrs: mustprogress nofree norecurse nosync nounwind willreturn memory(read, inaccessiblemem: none) uwtable
define internal range(i32 0, 51) i32 @sdx_probe(ptr noundef readonly captures(none) %0) #0 {
  %2 = getelementptr inbounds nuw i8, ptr %0, i64 8
  %3 = load ptr, ptr %2, align 8, !tbaa !4
  %4 = load i32, ptr %3, align 1, !tbaa !11
  %5 = icmp eq i32 %4, 978863187
  %. = select i1 %5, i32 50, i32 0
  ret i32 %.
}

; Function Attrs: nounwind uwtable
define internal range(i32 -1094995529, 1) i32 @sdx_read_header(ptr noundef %0) #1 {
  %2 = getelementptr inbounds nuw i8, ptr %0, i64 32
  %3 = load ptr, ptr %2, align 8, !tbaa !12
  %4 = tail call i64 @avio_skip(ptr noundef %3, i64 noundef 4) #4
  br label %5

5:                                                ; preds = %8, %1
  %6 = load ptr, ptr %2, align 8, !tbaa !12
  %7 = tail call i32 @avio_feof(ptr noundef %6) #4
  %.not = icmp eq i32 %7, 0
  br i1 %.not, label %8, label %12

8:                                                ; preds = %5
  %9 = load ptr, ptr %2, align 8, !tbaa !12
  %10 = tail call i32 @avio_r8(ptr noundef %9) #4
  %11 = icmp eq i32 %10, 26
  br i1 %11, label %12, label %5, !llvm.loop !27

12:                                               ; preds = %8, %5
  %13 = load ptr, ptr %2, align 8, !tbaa !12
  %14 = tail call i32 @avio_r8(ptr noundef %13) #4
  %.not24 = icmp eq i32 %14, 1
  br i1 %.not24, label %15, label %44

15:                                               ; preds = %12
  %16 = load ptr, ptr %2, align 8, !tbaa !12
  %17 = tail call i32 @avio_r8(ptr noundef %16) #4
  %18 = load ptr, ptr %2, align 8, !tbaa !12
  %19 = sext i32 %17 to i64
  %20 = tail call i64 @avio_skip(ptr noundef %18, i64 noundef %19) #4
  %21 = load ptr, ptr %2, align 8, !tbaa !12
  %22 = tail call i64 @avio_skip(ptr noundef %21, i64 noundef 4) #4
  %23 = load ptr, ptr %2, align 8, !tbaa !12
  %24 = tail call i32 @avio_r8(ptr noundef %23) #4
  %25 = tail call ptr @avformat_new_stream(ptr noundef nonnull %0, ptr noundef null) #4
  %.not25 = icmp eq ptr %25, null
  br i1 %.not25, label %44, label %26

26:                                               ; preds = %15
  %27 = getelementptr inbounds nuw i8, ptr %25, i64 16
  %28 = load ptr, ptr %27, align 8, !tbaa !29
  store i32 1, ptr %28, align 8, !tbaa !36
  %29 = getelementptr inbounds nuw i8, ptr %28, i64 132
  store i32 1, ptr %29, align 4, !tbaa !39
  %30 = load ptr, ptr %2, align 8, !tbaa !12
  %31 = tail call i32 @avio_rl32(ptr noundef %30) #4
  %32 = load ptr, ptr %27, align 8, !tbaa !29
  %33 = getelementptr inbounds nuw i8, ptr %32, i64 152
  store i32 %31, ptr %33, align 8, !tbaa !40
  %34 = add i32 %24, -8
  %35 = tail call i32 @llvm.fshl.i32(i32 %34, i32 %34, i32 29)
  %36 = icmp ult i32 %35, 4
  br i1 %36, label %switch.lookup, label %44

switch.lookup:                                    ; preds = %26
  %37 = zext nneg i32 %35 to i64
  %switch.gep = getelementptr inbounds nuw [4 x i32], ptr @switch.table.sdx_read_header, i64 0, i64 %37
  %switch.load = load i32, ptr %switch.gep, align 4
  %38 = getelementptr inbounds nuw i8, ptr %32, i64 4
  store i32 %switch.load, ptr %38, align 4, !tbaa !41
  %39 = load ptr, ptr %2, align 8, !tbaa !12
  %40 = tail call i64 @avio_skip(ptr noundef %39, i64 noundef 16) #4
  %41 = sdiv i32 %24, 8
  %42 = load ptr, ptr %27, align 8, !tbaa !29
  %43 = getelementptr inbounds nuw i8, ptr %42, i64 156
  store i32 %41, ptr %43, align 4, !tbaa !42
  br label %44

44:                                               ; preds = %26, %15, %12, %switch.lookup
  %.0 = phi i32 [ 0, %switch.lookup ], [ -1094995529, %12 ], [ -12, %15 ], [ -1094995529, %26 ]
  ret i32 %.0
}

declare i32 @ff_pcm_read_packet(ptr noundef, ptr noundef) #2

declare i32 @ff_pcm_read_seek(ptr noundef, i32 noundef, i64 noundef, i32 noundef) #2

declare i64 @avio_skip(ptr noundef, i64 noundef) local_unnamed_addr #2

declare i32 @avio_feof(ptr noundef) local_unnamed_addr #2

declare i32 @avio_r8(ptr noundef) local_unnamed_addr #2

declare ptr @avformat_new_stream(ptr noundef, ptr noundef) local_unnamed_addr #2

declare i32 @avio_rl32(ptr noundef) local_unnamed_addr #2

; Function Attrs: nocallback nofree nosync nounwind speculatable willreturn memory(none)
declare i32 @llvm.fshl.i32(i32, i32, i32) #3


!llvm.module.flags = !{!0, !1, !2, !3}

!0 = !{i32 1, !"wchar_size", i32 4}
!1 = !{i32 8, !"PIC Level", i32 2}
!2 = !{i32 7, !"uwtable", i32 2}
!3 = !{i32 1, !"override-stack-alignment", i32 16}
!4 = !{!5, !6, i64 8}
!5 = !{!"AVProbeData", !6, i64 0, !6, i64 8, !10, i64 16, !6, i64 24}
!6 = !{!"p1 omnipotent char", !7, i64 0}
!7 = !{!"any pointer", !8, i64 0}
!8 = !{!"omnipotent char", !9, i64 0}
!9 = !{!"Simple C/C++ TBAA"}
!10 = !{!"int", !8, i64 0}
!11 = !{!8, !8, i64 0}
!12 = !{!13, !17, i64 32}
!13 = !{!"AVFormatContext", !14, i64 0, !15, i64 8, !16, i64 16, !7, i64 24, !17, i64 32, !10, i64 40, !10, i64 44, !18, i64 48, !10, i64 56, !20, i64 64, !10, i64 72, !21, i64 80, !6, i64 88, !22, i64 96, !22, i64 104, !22, i64 112, !10, i64 120, !10, i64 124, !10, i64 128, !22, i64 136, !22, i64 144, !6, i64 152, !10, i64 160, !10, i64 164, !23, i64 168, !10, i64 176, !10, i64 180, !10, i64 184, !10, i64 188, !24, i64 192, !22, i64 200, !10, i64 208, !10, i64 212, !25, i64 216, !10, i64 232, !10, i64 236, !10, i64 240, !10, i64 244, !22, i64 248, !10, i64 256, !10, i64 260, !10, i64 264, !10, i64 268, !10, i64 272, !10, i64 276, !10, i64 280, !10, i64 284, !10, i64 288, !10, i64 292, !10, i64 296, !10, i64 300, !22, i64 304, !10, i64 312, !10, i64 316, !10, i64 320, !10, i64 324, !10, i64 328, !6, i64 336, !6, i64 344, !6, i64 352, !6, i64 360, !10, i64 368, !26, i64 376, !26, i64 384, !26, i64 392, !26, i64 400, !10, i64 408, !7, i64 416, !7, i64 424, !22, i64 432, !6, i64 440, !7, i64 448, !7, i64 456, !22, i64 464}
!14 = !{!"p1 _ZTS7AVClass", !7, i64 0}
!15 = !{!"p1 _ZTS13AVInputFormat", !7, i64 0}
!16 = !{!"p1 _ZTS14AVOutputFormat", !7, i64 0}
!17 = !{!"p1 _ZTS11AVIOContext", !7, i64 0}
!18 = !{!"p2 _ZTS8AVStream", !19, i64 0}
!19 = !{!"any p2 pointer", !7, i64 0}
!20 = !{!"p2 _ZTS13AVStreamGroup", !19, i64 0}
!21 = !{!"p2 _ZTS9AVChapter", !19, i64 0}
!22 = !{!"long", !8, i64 0}
!23 = !{!"p2 _ZTS9AVProgram", !19, i64 0}
!24 = !{!"p1 _ZTS12AVDictionary", !7, i64 0}
!25 = !{!"AVIOInterruptCB", !7, i64 0, !7, i64 8}
!26 = !{!"p1 _ZTS7AVCodec", !7, i64 0}
!27 = distinct !{!27, !28}
!28 = !{!"llvm.loop.mustprogress"}
!29 = !{!30, !31, i64 16}
!30 = !{!"AVStream", !14, i64 0, !10, i64 8, !10, i64 12, !31, i64 16, !7, i64 24, !32, i64 32, !22, i64 40, !22, i64 48, !22, i64 56, !10, i64 64, !10, i64 68, !32, i64 72, !24, i64 80, !32, i64 88, !33, i64 96, !10, i64 200, !32, i64 204, !10, i64 212}
!31 = !{!"p1 _ZTS17AVCodecParameters", !7, i64 0}
!32 = !{!"AVRational", !10, i64 0, !10, i64 4}
!33 = !{!"AVPacket", !34, i64 0, !22, i64 8, !22, i64 16, !6, i64 24, !10, i64 32, !10, i64 36, !10, i64 40, !35, i64 48, !10, i64 56, !22, i64 64, !22, i64 72, !7, i64 80, !34, i64 88, !32, i64 96}
!34 = !{!"p1 _ZTS11AVBufferRef", !7, i64 0}
!35 = !{!"p1 _ZTS16AVPacketSideData", !7, i64 0}
!36 = !{!37, !10, i64 0}
!37 = !{!"AVCodecParameters", !10, i64 0, !10, i64 4, !10, i64 8, !6, i64 16, !10, i64 24, !35, i64 32, !10, i64 40, !10, i64 44, !22, i64 48, !10, i64 56, !10, i64 60, !10, i64 64, !10, i64 68, !10, i64 72, !10, i64 76, !32, i64 80, !32, i64 88, !10, i64 96, !10, i64 100, !10, i64 104, !10, i64 108, !10, i64 112, !10, i64 116, !10, i64 120, !38, i64 128, !10, i64 152, !10, i64 156, !10, i64 160, !10, i64 164, !10, i64 168, !10, i64 172}
!38 = !{!"AVChannelLayout", !10, i64 0, !10, i64 4, !8, i64 8, !7, i64 16}
!39 = !{!37, !10, i64 132}
!40 = !{!37, !10, i64 152}
!41 = !{!37, !10, i64 4}
!42 = !{!37, !10, i64 156}
